target datalayout = "e-m:e-p270:32:32-p271:32:32-p272:64:64-i64:64-i128:128-f80:128-n8:16:32:64-S128"
target triple = "x86_64-unknown-linux-gnu"

%struct.BdrvDirtyBitmap = type { ptr, ptr, i8, ptr, ptr, i64, i8, i32, i8, i8, i8, i8, %struct.anon }
%struct.anon = type { ptr, ptr }
%struct.BlockDriverState = type { i32, i8, i8, i8, i8, i8, ptr, ptr, ptr, %struct.anon.0, i8, [4096 x i8], [4096 x i8], [4096 x i8], [16 x i8], ptr, [4096 x i8], %struct.BlockLimits, i32, i32, i32, i32, [32 x i8], %union.anon, %union.anon.1, %union.anon.2, i32, [16 x %struct.anon.3], ptr, %struct.anon.4, ptr, ptr, %struct.anon.5, ptr, ptr, i32, ptr, i64, i64, %struct.QemuMutex, %struct.anon.6, %struct.Stat64, i32, i32, i32, i32, i32, i32, %struct.QemuMutex, %struct.anon.7, %struct.CoQueue, i8, i32, i8, %struct.CoMutex, ptr, ptr }
%struct.anon.0 = type { ptr }
%struct.BlockLimits = type { i32, i64, i32, i64, i32, i32, i32, i64, i32, i64, i64, i32, i8, i32, i32, i32, i32, i32, i32, i32 }
%union.anon = type { %struct.QTailQLink }
%struct.QTailQLink = type { ptr, ptr }
%union.anon.1 = type { %struct.QTailQLink }
%union.anon.2 = type { %struct.QTailQLink }
%struct.anon.3 = type { ptr }
%struct.anon.4 = type { ptr }
%struct.anon.5 = type { ptr }
%struct.anon.6 = type { ptr }
%struct.Stat64 = type { i64 }
%struct.QemuMutex = type { %union.pthread_mutex_t, i8 }
%union.pthread_mutex_t = type { %struct.__pthread_mutex_s }
%struct.__pthread_mutex_s = type { i32, i32, i32, i32, i32, i16, i16, %struct.__pthread_internal_list }
%struct.__pthread_internal_list = type { ptr, ptr }
%struct.anon.7 = type { ptr }
%struct.CoQueue = type { %struct.anon.8 }
%struct.anon.8 = type { ptr, ptr }
%struct.CoMutex = type { i32, ptr, %struct.anon.9, %struct.anon.9, i32, i32, ptr }
%struct.anon.9 = type { ptr }

@.str.1 = private unnamed_addr constant [29 x i8] c"../qemu/block/dirty-bitmap.c\00", align 1
@.str.26 = private unnamed_addr constant [34 x i8] c"!bdrv_dirty_bitmap_readonly(dest)\00", align 1
@__PRETTY_FUNCTION__.bdrv_dirty_bitmap_merge_internal = private unnamed_addr constant [101 x i8] c"void bdrv_dirty_bitmap_merge_internal(BdrvDirtyBitmap *, const BdrvDirtyBitmap *, HBitmap **, _Bool)\00", align 1
@.str.27 = private unnamed_addr constant [38 x i8] c"!bdrv_dirty_bitmap_inconsistent(dest)\00", align 1
@.str.28 = private unnamed_addr constant [37 x i8] c"!bdrv_dirty_bitmap_inconsistent(src)\00", align 1
@__func__.bdrv_dirty_bitmaps_lock = private unnamed_addr constant [24 x i8] c"bdrv_dirty_bitmaps_lock\00", align 1
@qemu_mutex_lock_func = external global ptr, align 8

; Function Attrs: nounwind sspstrong uwtable
define internal void @bdrv_dirty_bitmaps_unlock(ptr noundef %bs) #0 {
entry:
  %bs.addr = alloca ptr, align 8
  store ptr %bs, ptr %bs.addr, align 8
  %0 = load ptr, ptr %bs.addr, align 8
  %dirty_bitmap_mutex = getelementptr inbounds %struct.BlockDriverState, ptr %0, i32 0, i32 39
  call void @qemu_mutex_unlock_impl(ptr noundef %dirty_bitmap_mutex, ptr noundef @.str.1, i32 noundef 71)
  ret void
}

; Function Attrs: nounwind sspstrong uwtable
define internal void @bdrv_dirty_bitmaps_lock(ptr noundef %bs) #0 {
entry:
  %bs.addr = alloca ptr, align 8
  %_f = alloca ptr, align 8
  %tmp = alloca ptr, align 8
  %atomic-temp = alloca ptr, align 8
  store ptr %bs, ptr %bs.addr, align 8
  br label %while.cond

while.cond:                                       ; preds = %do.end, %entry
  br i1 false, label %while.body, label %while.end

while.body:                                       ; preds = %while.cond
  br label %do.body

do.body:                                          ; preds = %while.body
  call void @g_assertion_message_expr(ptr noundef null, ptr noundef @.str.1, i32 noundef 66, ptr noundef @__func__.bdrv_dirty_bitmaps_lock, ptr noundef null) #10
  unreachable

do.end:                                           ; No predecessors!
  br label %while.cond

while.end:                                        ; preds = %while.cond
  %0 = load atomic i64, ptr @qemu_mutex_lock_func monotonic, align 8
  store i64 %0, ptr %atomic-temp, align 8
  %1 = load ptr, ptr %atomic-temp, align 8
  store ptr %1, ptr %tmp, align 8
  %2 = load ptr, ptr %tmp, align 8
  store ptr %2, ptr %_f, align 8
  %3 = load ptr, ptr %_f, align 8
  %4 = load ptr, ptr %bs.addr, align 8
  %dirty_bitmap_mutex = getelementptr inbounds %struct.BlockDriverState, ptr %4, i32 0, i32 39
  call void %3(ptr noundef %dirty_bitmap_mutex, ptr noundef @.str.1, i32 noundef 66)
  ret void
}

; Function Attrs: nounwind sspstrong uwtable
define dso_local zeroext i1 @bdrv_dirty_bitmap_inconsistent(ptr noundef %bitmap) #0 {
entry:
  %bitmap.addr = alloca ptr, align 8
  store ptr %bitmap, ptr %bitmap.addr, align 8
  %0 = load ptr, ptr %bitmap.addr, align 8
  %inconsistent = getelementptr inbounds %struct.BdrvDirtyBitmap, ptr %0, i32 0, i32 10
  %1 = load i8, ptr %inconsistent, align 2
  %tobool = trunc i8 %1 to i1
  ret i1 %tobool
}

; Function Attrs: nounwind sspstrong uwtable
define dso_local zeroext i1 @bdrv_dirty_bitmap_readonly(ptr noundef %bitmap) #0 {
entry:
  %bitmap.addr = alloca ptr, align 8
  store ptr %bitmap, ptr %bitmap.addr, align 8
  %0 = load ptr, ptr %bitmap.addr, align 8
  %readonly = getelementptr inbounds %struct.BdrvDirtyBitmap, ptr %0, i32 0, i32 8
  %1 = load i8, ptr %readonly, align 8
  %tobool = trunc i8 %1 to i1
  ret i1 %tobool
}

; Function Attrs: nounwind sspstrong uwtable
define dso_local void @bdrv_dirty_bitmap_merge_internal(ptr noundef %dest, ptr noundef %src, ptr noundef %backup, i1 noundef zeroext %lock) #0 {
entry:
  %dest.addr = alloca ptr, align 8
  %src.addr = alloca ptr, align 8
  %backup.addr = alloca ptr, align 8
  %lock.addr = alloca i8, align 1
  store ptr %dest, ptr %dest.addr, align 8
  store ptr %src, ptr %src.addr, align 8
  store ptr %backup, ptr %backup.addr, align 8
  %frombool = zext i1 %lock to i8
  store i8 %frombool, ptr %lock.addr, align 1
  br label %do.body

do.body:                                          ; preds = %entry
  br label %do.end

do.end:                                           ; preds = %do.body
  %0 = load ptr, ptr %dest.addr, align 8
  %call = call zeroext i1 @bdrv_dirty_bitmap_readonly(ptr noundef %0)
  br i1 %call, label %if.else, label %if.then

if.then:                                          ; preds = %do.end
  br label %if.end

if.else:                                          ; preds = %do.end
  call void @__assert_fail(ptr noundef @.str.26, ptr noundef @.str.1, i32 noundef 865, ptr noundef @__PRETTY_FUNCTION__.bdrv_dirty_bitmap_merge_internal) #11
  unreachable

if.end:                                           ; preds = %if.then
  %1 = load ptr, ptr %dest.addr, align 8
  %call1 = call zeroext i1 @bdrv_dirty_bitmap_inconsistent(ptr noundef %1)
  br i1 %call1, label %if.else3, label %if.then2

if.then2:                                         ; preds = %if.end
  br label %if.end4

if.else3:                                         ; preds = %if.end
  call void @__assert_fail(ptr noundef @.str.27, ptr noundef @.str.1, i32 noundef 866, ptr noundef @__PRETTY_FUNCTION__.bdrv_dirty_bitmap_merge_internal) #11
  unreachable

if.end4:                                          ; preds = %if.then2
  %2 = load ptr, ptr %src.addr, align 8
  %call5 = call zeroext i1 @bdrv_dirty_bitmap_inconsistent(ptr noundef %2)
  br i1 %call5, label %if.else7, label %if.then6

if.then6:                                         ; preds = %if.end4
  br label %if.end8

if.else7:                                         ; preds = %if.end4
  call void @__assert_fail(ptr noundef @.str.28, ptr noundef @.str.1, i32 noundef 867, ptr noundef @__PRETTY_FUNCTION__.bdrv_dirty_bitmap_merge_internal) #11
  unreachable

if.end8:                                          ; preds = %if.then6
  %3 = load i8, ptr %lock.addr, align 1
  %tobool = trunc i8 %3 to i1
  br i1 %tobool, label %if.then9, label %if.end15

if.then9:                                         ; preds = %if.end8
  %4 = load ptr, ptr %dest.addr, align 8
  %bs = getelementptr inbounds %struct.BdrvDirtyBitmap, ptr %4, i32 0, i32 0
  %5 = load ptr, ptr %bs, align 8
  call void @bdrv_dirty_bitmaps_lock(ptr noundef %5)
  %6 = load ptr, ptr %src.addr, align 8
  %bs10 = getelementptr inbounds %struct.BdrvDirtyBitmap, ptr %6, i32 0, i32 0
  %7 = load ptr, ptr %bs10, align 8
  %8 = load ptr, ptr %dest.addr, align 8
  %bs11 = getelementptr inbounds %struct.BdrvDirtyBitmap, ptr %8, i32 0, i32 0
  %9 = load ptr, ptr %bs11, align 8
  %cmp = icmp ne ptr %7, %9
  br i1 %cmp, label %if.then12, label %if.end14

if.then12:                                        ; preds = %if.then9
  %10 = load ptr, ptr %src.addr, align 8
  %bs13 = getelementptr inbounds %struct.BdrvDirtyBitmap, ptr %10, i32 0, i32 0
  %11 = load ptr, ptr %bs13, align 8
  call void @bdrv_dirty_bitmaps_lock(ptr noundef %11)
  br label %if.end14

if.end14:                                         ; preds = %if.then12, %if.then9
  br label %if.end15

if.end15:                                         ; preds = %if.end14, %if.end8
  %12 = load ptr, ptr %backup.addr, align 8
  %tobool16 = icmp ne ptr %12, null
  br i1 %tobool16, label %if.then17, label %if.else23

if.then17:                                        ; preds = %if.end15
  %13 = load ptr, ptr %dest.addr, align 8
  %bitmap = getelementptr inbounds %struct.BdrvDirtyBitmap, ptr %13, i32 0, i32 1
  %14 = load ptr, ptr %bitmap, align 8
  %15 = load ptr, ptr %backup.addr, align 8
  store ptr %14, ptr %15, align 8
  %16 = load ptr, ptr %dest.addr, align 8
  %size = getelementptr inbounds %struct.BdrvDirtyBitmap, ptr %16, i32 0, i32 5
  %17 = load i64, ptr %size, align 8
  %18 = load ptr, ptr %backup.addr, align 8
  %19 = load ptr, ptr %18, align 8
  %call18 = call i32 @hbitmap_granularity(ptr noundef %19)
  %call19 = call ptr @hbitmap_alloc(i64 noundef %17, i32 noundef %call18)
  %20 = load ptr, ptr %dest.addr, align 8
  %bitmap20 = getelementptr inbounds %struct.BdrvDirtyBitmap, ptr %20, i32 0, i32 1
  store ptr %call19, ptr %bitmap20, align 8
  %21 = load ptr, ptr %backup.addr, align 8
  %22 = load ptr, ptr %21, align 8
  %23 = load ptr, ptr %src.addr, align 8
  %bitmap21 = getelementptr inbounds %struct.BdrvDirtyBitmap, ptr %23, i32 0, i32 1
  %24 = load ptr, ptr %bitmap21, align 8
  %25 = load ptr, ptr %dest.addr, align 8
  %bitmap22 = getelementptr inbounds %struct.BdrvDirtyBitmap, ptr %25, i32 0, i32 1
  %26 = load ptr, ptr %bitmap22, align 8
  call void @hbitmap_merge(ptr noundef %22, ptr noundef %24, ptr noundef %26)
  br label %if.end27

if.else23:                                        ; preds = %if.end15
  %27 = load ptr, ptr %dest.addr, align 8
  %bitmap24 = getelementptr inbounds %struct.BdrvDirtyBitmap, ptr %27, i32 0, i32 1
  %28 = load ptr, ptr %bitmap24, align 8
  %29 = load ptr, ptr %src.addr, align 8
  %bitmap25 = getelementptr inbounds %struct.BdrvDirtyBitmap, ptr %29, i32 0, i32 1
  %30 = load ptr, ptr %bitmap25, align 8
  %31 = load ptr, ptr %dest.addr, align 8
  %bitmap26 = getelementptr inbounds %struct.BdrvDirtyBitmap, ptr %31, i32 0, i32 1
  %32 = load ptr, ptr %bitmap26, align 8
  call void @hbitmap_merge(ptr noundef %28, ptr noundef %30, ptr noundef %32)
  br label %if.end27

if.end27:                                         ; preds = %if.else23, %if.then17
  %33 = load i8, ptr %lock.addr, align 1
  %tobool28 = trunc i8 %33 to i1
  br i1 %tobool28, label %if.then29, label %if.end37

if.then29:                                        ; preds = %if.end27
  %34 = load ptr, ptr %dest.addr, align 8
  %bs30 = getelementptr inbounds %struct.BdrvDirtyBitmap, ptr %34, i32 0, i32 0
  %35 = load ptr, ptr %bs30, align 8
  call void @bdrv_dirty_bitmaps_unlock(ptr noundef %35)
  %36 = load ptr, ptr %src.addr, align 8
  %bs31 = getelementptr inbounds %struct.BdrvDirtyBitmap, ptr %36, i32 0, i32 0
  %37 = load ptr, ptr %bs31, align 8
  %38 = load ptr, ptr %dest.addr, align 8
  %bs32 = getelementptr inbounds %struct.BdrvDirtyBitmap, ptr %38, i32 0, i32 0
  %39 = load ptr, ptr %bs32, align 8
  %cmp33 = icmp ne ptr %37, %39
  br i1 %cmp33, label %if.then34, label %if.end36

if.then34:                                        ; preds = %if.then29
  %40 = load ptr, ptr %src.addr, align 8
  %bs35 = getelementptr inbounds %struct.BdrvDirtyBitmap, ptr %40, i32 0, i32 0
  %41 = load ptr, ptr %bs35, align 8
  call void @bdrv_dirty_bitmaps_unlock(ptr noundef %41)
  br label %if.end36

if.end36:                                         ; preds = %if.then34, %if.then29
  br label %if.end37

if.end37:                                         ; preds = %if.end36, %if.end27
  ret void
}