; Function Attrs: nounwind sspstrong uwtable
define dso_local void @bdrv_dirty_bitmap_merge_internal(ptr noundef captures(none) %dest, ptr noundef readonly captures(none) %src, ptr noundef %backup, i1 noundef zeroext %lock) local_unnamed_addr #0 {
entry:
  %readonly.i = getelementptr inbounds nuw i8, ptr %dest, i64 56
  %0 = load i8, ptr %readonly.i, align 8
  %tobool.i = trunc i8 %0 to i1
  br i1 %tobool.i, label %if.else, label %if.end

if.else:                                          ; preds = %entry
  tail call void @__assert_fail(ptr noundef nonnull @.str.26, ptr noundef nonnull @.str.1, i32 noundef 865, ptr noundef nonnull @__PRETTY_FUNCTION__.bdrv_dirty_bitmap_merge_internal) #15
  unreachable

if.end:                                           ; preds = %entry
  %inconsistent.i = getelementptr inbounds nuw i8, ptr %dest, i64 58
  %1 = load i8, ptr %inconsistent.i, align 2
  %tobool.i23 = trunc i8 %1 to i1
  br i1 %tobool.i23, label %if.else3, label %if.end4

if.else3:                                         ; preds = %if.end
  tail call void @__assert_fail(ptr noundef nonnull @.str.27, ptr noundef nonnull @.str.1, i32 noundef 866, ptr noundef nonnull @__PRETTY_FUNCTION__.bdrv_dirty_bitmap_merge_internal) #15
  unreachable

if.end4:                                          ; preds = %if.end
  %inconsistent.i24 = getelementptr inbounds nuw i8, ptr %src, i64 58
  %2 = load i8, ptr %inconsistent.i24, align 2
  %tobool.i25 = trunc i8 %2 to i1
  br i1 %tobool.i25, label %if.else7, label %if.end8

if.else7:                                         ; preds = %if.end4
  tail call void @__assert_fail(ptr noundef nonnull @.str.28, ptr noundef nonnull @.str.1, i32 noundef 867, ptr noundef nonnull @__PRETTY_FUNCTION__.bdrv_dirty_bitmap_merge_internal) #15
  unreachable

if.end8:                                          ; preds = %if.end4
  br i1 %lock, label %if.then9, label %if.end15

if.then9:                                         ; preds = %if.end8
  %3 = load ptr, ptr %dest, align 8
  %4 = load atomic i64, ptr @qemu_mutex_lock_func monotonic, align 8
  %5 = inttoptr i64 %4 to ptr
  %dirty_bitmap_mutex.i = getelementptr inbounds nuw i8, ptr %3, i64 16904
  tail call void %5(ptr noundef nonnull %dirty_bitmap_mutex.i, ptr noundef nonnull @.str.1, i32 noundef 66) #14
  %6 = load ptr, ptr %src, align 8
  %7 = load ptr, ptr %dest, align 8
  %cmp.not = icmp eq ptr %6, %7
  br i1 %cmp.not, label %if.end15, label %if.then12

if.then12:                                        ; preds = %if.then9
  %8 = load atomic i64, ptr @qemu_mutex_lock_func monotonic, align 8
  %9 = inttoptr i64 %8 to ptr
  %dirty_bitmap_mutex.i26 = getelementptr inbounds nuw i8, ptr %6, i64 16904
  tail call void %9(ptr noundef nonnull %dirty_bitmap_mutex.i26, ptr noundef nonnull @.str.1, i32 noundef 66) #14
  br label %if.end15

if.end15:                                         ; preds = %if.then9, %if.then12, %if.end8
  %tobool16.not = icmp eq ptr %backup, null
  %bitmap24 = getelementptr inbounds nuw i8, ptr %dest, i64 8
  %10 = load ptr, ptr %bitmap24, align 8
  br i1 %tobool16.not, label %if.else23, label %if.then17

if.then17:                                        ; preds = %if.end15
  store ptr %10, ptr %backup, align 8
  %size = getelementptr inbounds nuw i8, ptr %dest, i64 40
  %11 = load i64, ptr %size, align 8
  %call18 = tail call i32 @hbitmap_granularity(ptr noundef %10) #14
  %call19 = tail call ptr @hbitmap_alloc(i64 noundef %11, i32 noundef %call18) #14
  store ptr %call19, ptr %bitmap24, align 8
  %12 = load ptr, ptr %backup, align 8
  %bitmap21 = getelementptr inbounds nuw i8, ptr %src, i64 8
  %13 = load ptr, ptr %bitmap21, align 8
  tail call void @hbitmap_merge(ptr noundef %12, ptr noundef %13, ptr noundef %call19) #14
  br label %if.end27

if.else23:                                        ; preds = %if.end15
  %bitmap25 = getelementptr inbounds nuw i8, ptr %src, i64 8
  %14 = load ptr, ptr %bitmap25, align 8
  tail call void @hbitmap_merge(ptr noundef %10, ptr noundef %14, ptr noundef %10) #14
  br label %if.end27

if.end27:                                         ; preds = %if.else23, %if.then17
  br i1 %lock, label %if.then29, label %if.end37

if.then29:                                        ; preds = %if.end27
  %15 = load ptr, ptr %dest, align 8
  %dirty_bitmap_mutex.i27 = getelementptr inbounds nuw i8, ptr %15, i64 16904
  tail call void @qemu_mutex_unlock_impl(ptr noundef nonnull %dirty_bitmap_mutex.i27, ptr noundef nonnull @.str.1, i32 noundef 71) #14
  %16 = load ptr, ptr %src, align 8
  %17 = load ptr, ptr %dest, align 8
  %cmp33.not = icmp eq ptr %16, %17
  br i1 %cmp33.not, label %if.end37, label %if.then34

if.then34:                                        ; preds = %if.then29
  %dirty_bitmap_mutex.i28 = getelementptr inbounds nuw i8, ptr %16, i64 16904
  tail call void @qemu_mutex_unlock_impl(ptr noundef nonnull %dirty_bitmap_mutex.i28, ptr noundef nonnull @.str.1, i32 noundef 71) #14
  br label %if.end37

if.end37:                                         ; preds = %if.then29, %if.then34, %if.end27
  ret void
}